#include <math.h>
#include <stdio.h>
#include <stdlib.h>
#include <string.h>

int main()
{
	int n;
	scanf("%d", &n);
	int t=0, s=0, m=0;
	for(int i=1;i<=n;i++)
	{
		m=s=i;
		if(m%7==0)
		{
			t=t;
		}
		else
		{
			m/=10;
			if(m==7)
			{
				t=t;
			}
			else if((s-m*10)==7)
			{
				t=t;
			}
			else
			{
				t+=s*s;
			}
		}
	}
		printf("%d\n", t);
	    return 0;
}