; ModuleID = '30/1974.c'
source_filename = "30/1974.c"
target datalayout = "e-m:e-p270:32:32-p271:32:32-p272:64:64-i64:64-f80:128-n8:16:32:64-S128"
target triple = "x86_64-pc-linux-gnu"

@.str = private unnamed_addr constant [3 x i8] c"%d\00", align 1
@.str.1 = private unnamed_addr constant [4 x i8] c"%d\0A\00", align 1

; Function Attrs: noinline nounwind uwtable
define dso_local i32 @main() #0 {
  %1 = alloca i32, align 4
  %2 = alloca i32, align 4
  %3 = alloca i32, align 4
  %4 = alloca i32, align 4
  %5 = alloca i32, align 4
  %6 = alloca i32, align 4
  store i32 0, i32* %1, align 4
  %7 = call i32 (i8*, ...) @__isoc99_scanf(i8* getelementptr inbounds ([3 x i8], [3 x i8]* @.str, i64 0, i64 0), i32* %2)
  store i32 0, i32* %3, align 4
  store i32 0, i32* %4, align 4
  store i32 0, i32* %5, align 4
  store i32 1, i32* %6, align 4
  br label %8

8:                                                ; preds = %43, %0
  %9 = load i32, i32* %6, align 4
  %10 = load i32, i32* %2, align 4
  %11 = icmp sle i32 %9, %10
  br i1 %11, label %12, label %46

12:                                               ; preds = %8
  %13 = load i32, i32* %6, align 4
  store i32 %13, i32* %4, align 4
  store i32 %13, i32* %5, align 4
  %14 = load i32, i32* %5, align 4
  %15 = srem i32 %14, 7
  %16 = icmp eq i32 %15, 0
  br i1 %16, label %17, label %19

17:                                               ; preds = %12
  %18 = load i32, i32* %3, align 4
  store i32 %18, i32* %3, align 4
  br label %42

19:                                               ; preds = %12
  %20 = load i32, i32* %5, align 4
  %21 = sdiv i32 %20, 10
  store i32 %21, i32* %5, align 4
  %22 = load i32, i32* %5, align 4
  %23 = icmp eq i32 %22, 7
  br i1 %23, label %24, label %26

24:                                               ; preds = %19
  %25 = load i32, i32* %3, align 4
  store i32 %25, i32* %3, align 4
  br label %41

26:                                               ; preds = %19
  %27 = load i32, i32* %4, align 4
  %28 = load i32, i32* %5, align 4
  %29 = mul nsw i32 %28, 10
  %30 = sub nsw i32 %27, %29
  %31 = icmp eq i32 %30, 7
  br i1 %31, label %32, label %34

32:                                               ; preds = %26
  %33 = load i32, i32* %3, align 4
  store i32 %33, i32* %3, align 4
  br label %40

34:                                               ; preds = %26
  %35 = load i32, i32* %4, align 4
  %36 = load i32, i32* %4, align 4
  %37 = mul nsw i32 %35, %36
  %38 = load i32, i32* %3, align 4
  %39 = add nsw i32 %38, %37
  store i32 %39, i32* %3, align 4
  br label %40

40:                                               ; preds = %34, %32
  br label %41

41:                                               ; preds = %40, %24
  br label %42

42:                                               ; preds = %41, %17
  br label %43

43:                                               ; preds = %42
  %44 = load i32, i32* %6, align 4
  %45 = add nsw i32 %44, 1
  store i32 %45, i32* %6, align 4
  br label %8

46:                                               ; preds = %8
  %47 = load i32, i32* %3, align 4
  %48 = call i32 (i8*, ...) @printf(i8* getelementptr inbounds ([4 x i8], [4 x i8]* @.str.1, i64 0, i64 0), i32 %47)
  ret i32 0
}

declare dso_local i32 @__isoc99_scanf(i8*, ...) #1

declare dso_local i32 @printf(i8*, ...) #1


!llvm.module.flags = !{!0}
!llvm.ident = !{!1}

!0 = !{i32 1, !"wchar_size", i32 4}
!1 = !{!"clang version 10.0.0-4ubuntu1 "}
